target datalayout = "e-m:e-p270:32:32-p271:32:32-p272:64:64-i64:64-i128:128-f80:128-n8:16:32:64-S128"
target triple = "x86_64-pc-linux-gnu"

; Function Attrs: nounwind uwtable
define internal i32 @vsad_intra8_c(ptr noundef %0, ptr noundef %1, ptr noundef %2, i64 noundef %3, i32 noundef %4) #2 {
  %6 = alloca ptr, align 8
  %7 = alloca ptr, align 8
  %8 = alloca ptr, align 8
  %9 = alloca i64, align 8
  %10 = alloca i32, align 4
  %11 = alloca i32, align 4
  %12 = alloca i32, align 4
  %13 = alloca i32, align 4
  store ptr %0, ptr %6, align 8, !tbaa !22
  store ptr %1, ptr %7, align 8, !tbaa !24
  store ptr %2, ptr %8, align 8, !tbaa !24
  store i64 %3, ptr %9, align 8, !tbaa !26
  store i32 %4, ptr %10, align 4, !tbaa !11
  call void @llvm.lifetime.start.p0(i64 4, ptr %11) #9
  store i32 0, ptr %11, align 4, !tbaa !11
  call void @llvm.lifetime.start.p0(i64 4, ptr %12) #9
  call void @llvm.lifetime.start.p0(i64 4, ptr %13) #9
  store i32 1, ptr %13, align 4, !tbaa !11
  br label %14

14:                                               ; preds = %257, %5
  %15 = load i32, ptr %13, align 4, !tbaa !11
  %16 = load i32, ptr %10, align 4, !tbaa !11
  %17 = icmp slt i32 %15, %16
  br i1 %17, label %18, label %260

18:                                               ; preds = %14
  store i32 0, ptr %12, align 4, !tbaa !11
  br label %19

19:                                               ; preds = %250, %18
  %20 = load i32, ptr %12, align 4, !tbaa !11
  %21 = icmp slt i32 %20, 8
  br i1 %21, label %22, label %253

22:                                               ; preds = %19
  %23 = load ptr, ptr %7, align 8, !tbaa !24
  %24 = load i32, ptr %12, align 4, !tbaa !11
  %25 = sext i32 %24 to i64
  %26 = getelementptr inbounds i8, ptr %23, i64 %25
  %27 = load i8, ptr %26, align 1, !tbaa !36
  %28 = zext i8 %27 to i32
  %29 = load ptr, ptr %7, align 8, !tbaa !24
  %30 = load i32, ptr %12, align 4, !tbaa !11
  %31 = sext i32 %30 to i64
  %32 = load i64, ptr %9, align 8, !tbaa !26
  %33 = add nsw i64 %31, %32
  %34 = getelementptr inbounds i8, ptr %29, i64 %33
  %35 = load i8, ptr %34, align 1, !tbaa !36
  %36 = zext i8 %35 to i32
  %37 = sub nsw i32 %28, %36
  %38 = icmp sge i32 %37, 0
  br i1 %38, label %39, label %55

39:                                               ; preds = %22
  %40 = load ptr, ptr %7, align 8, !tbaa !24
  %41 = load i32, ptr %12, align 4, !tbaa !11
  %42 = sext i32 %41 to i64
  %43 = getelementptr inbounds i8, ptr %40, i64 %42
  %44 = load i8, ptr %43, align 1, !tbaa !36
  %45 = zext i8 %44 to i32
  %46 = load ptr, ptr %7, align 8, !tbaa !24
  %47 = load i32, ptr %12, align 4, !tbaa !11
  %48 = sext i32 %47 to i64
  %49 = load i64, ptr %9, align 8, !tbaa !26
  %50 = add nsw i64 %48, %49
  %51 = getelementptr inbounds i8, ptr %46, i64 %50
  %52 = load i8, ptr %51, align 1, !tbaa !36
  %53 = zext i8 %52 to i32
  %54 = sub nsw i32 %45, %53
  br label %72

55:                                               ; preds = %22
  %56 = load ptr, ptr %7, align 8, !tbaa !24
  %57 = load i32, ptr %12, align 4, !tbaa !11
  %58 = sext i32 %57 to i64
  %59 = getelementptr inbounds i8, ptr %56, i64 %58
  %60 = load i8, ptr %59, align 1, !tbaa !36
  %61 = zext i8 %60 to i32
  %62 = load ptr, ptr %7, align 8, !tbaa !24
  %63 = load i32, ptr %12, align 4, !tbaa !11
  %64 = sext i32 %63 to i64
  %65 = load i64, ptr %9, align 8, !tbaa !26
  %66 = add nsw i64 %64, %65
  %67 = getelementptr inbounds i8, ptr %62, i64 %66
  %68 = load i8, ptr %67, align 1, !tbaa !36
  %69 = zext i8 %68 to i32
  %70 = sub nsw i32 %61, %69
  %71 = sub nsw i32 0, %70
  br label %72

72:                                               ; preds = %55, %39
  %73 = phi i32 [ %54, %39 ], [ %71, %55 ]
  %74 = load ptr, ptr %7, align 8, !tbaa !24
  %75 = load i32, ptr %12, align 4, !tbaa !11
  %76 = add nsw i32 %75, 1
  %77 = sext i32 %76 to i64
  %78 = getelementptr inbounds i8, ptr %74, i64 %77
  %79 = load i8, ptr %78, align 1, !tbaa !36
  %80 = zext i8 %79 to i32
  %81 = load ptr, ptr %7, align 8, !tbaa !24
  %82 = load i32, ptr %12, align 4, !tbaa !11
  %83 = sext i32 %82 to i64
  %84 = load i64, ptr %9, align 8, !tbaa !26
  %85 = add nsw i64 %83, %84
  %86 = add nsw i64 %85, 1
  %87 = getelementptr inbounds i8, ptr %81, i64 %86
  %88 = load i8, ptr %87, align 1, !tbaa !36
  %89 = zext i8 %88 to i32
  %90 = sub nsw i32 %80, %89
  %91 = icmp sge i32 %90, 0
  br i1 %91, label %92, label %110

92:                                               ; preds = %72
  %93 = load ptr, ptr %7, align 8, !tbaa !24
  %94 = load i32, ptr %12, align 4, !tbaa !11
  %95 = add nsw i32 %94, 1
  %96 = sext i32 %95 to i64
  %97 = getelementptr inbounds i8, ptr %93, i64 %96
  %98 = load i8, ptr %97, align 1, !tbaa !36
  %99 = zext i8 %98 to i32
  %100 = load ptr, ptr %7, align 8, !tbaa !24
  %101 = load i32, ptr %12, align 4, !tbaa !11
  %102 = sext i32 %101 to i64
  %103 = load i64, ptr %9, align 8, !tbaa !26
  %104 = add nsw i64 %102, %103
  %105 = add nsw i64 %104, 1
  %106 = getelementptr inbounds i8, ptr %100, i64 %105
  %107 = load i8, ptr %106, align 1, !tbaa !36
  %108 = zext i8 %107 to i32
  %109 = sub nsw i32 %99, %108
  br label %129

110:                                              ; preds = %72
  %111 = load ptr, ptr %7, align 8, !tbaa !24
  %112 = load i32, ptr %12, align 4, !tbaa !11
  %113 = add nsw i32 %112, 1
  %114 = sext i32 %113 to i64
  %115 = getelementptr inbounds i8, ptr %111, i64 %114
  %116 = load i8, ptr %115, align 1, !tbaa !36
  %117 = zext i8 %116 to i32
  %118 = load ptr, ptr %7, align 8, !tbaa !24
  %119 = load i32, ptr %12, align 4, !tbaa !11
  %120 = sext i32 %119 to i64
  %121 = load i64, ptr %9, align 8, !tbaa !26
  %122 = add nsw i64 %120, %121
  %123 = add nsw i64 %122, 1
  %124 = getelementptr inbounds i8, ptr %118, i64 %123
  %125 = load i8, ptr %124, align 1, !tbaa !36
  %126 = zext i8 %125 to i32
  %127 = sub nsw i32 %117, %126
  %128 = sub nsw i32 0, %127
  br label %129

129:                                              ; preds = %110, %92
  %130 = phi i32 [ %109, %92 ], [ %128, %110 ]
  %131 = add nsw i32 %73, %130
  %132 = load ptr, ptr %7, align 8, !tbaa !24
  %133 = load i32, ptr %12, align 4, !tbaa !11
  %134 = add nsw i32 %133, 2
  %135 = sext i32 %134 to i64
  %136 = getelementptr inbounds i8, ptr %132, i64 %135
  %137 = load i8, ptr %136, align 1, !tbaa !36
  %138 = zext i8 %137 to i32
  %139 = load ptr, ptr %7, align 8, !tbaa !24
  %140 = load i32, ptr %12, align 4, !tbaa !11
  %141 = add nsw i32 %140, 2
  %142 = sext i32 %141 to i64
  %143 = load i64, ptr %9, align 8, !tbaa !26
  %144 = add nsw i64 %142, %143
  %145 = getelementptr inbounds i8, ptr %139, i64 %144
  %146 = load i8, ptr %145, align 1, !tbaa !36
  %147 = zext i8 %146 to i32
  %148 = sub nsw i32 %138, %147
  %149 = icmp sge i32 %148, 0
  br i1 %149, label %150, label %168

150:                                              ; preds = %129
  %151 = load ptr, ptr %7, align 8, !tbaa !24
  %152 = load i32, ptr %12, align 4, !tbaa !11
  %153 = add nsw i32 %152, 2
  %154 = sext i32 %153 to i64
  %155 = getelementptr inbounds i8, ptr %151, i64 %154
  %156 = load i8, ptr %155, align 1, !tbaa !36
  %157 = zext i8 %156 to i32
  %158 = load ptr, ptr %7, align 8, !tbaa !24
  %159 = load i32, ptr %12, align 4, !tbaa !11
  %160 = add nsw i32 %159, 2
  %161 = sext i32 %160 to i64
  %162 = load i64, ptr %9, align 8, !tbaa !26
  %163 = add nsw i64 %161, %162
  %164 = getelementptr inbounds i8, ptr %158, i64 %163
  %165 = load i8, ptr %164, align 1, !tbaa !36
  %166 = zext i8 %165 to i32
  %167 = sub nsw i32 %157, %166
  br label %187

168:                                              ; preds = %129
  %169 = load ptr, ptr %7, align 8, !tbaa !24
  %170 = load i32, ptr %12, align 4, !tbaa !11
  %171 = add nsw i32 %170, 2
  %172 = sext i32 %171 to i64
  %173 = getelementptr inbounds i8, ptr %169, i64 %172
  %174 = load i8, ptr %173, align 1, !tbaa !36
  %175 = zext i8 %174 to i32
  %176 = load ptr, ptr %7, align 8, !tbaa !24
  %177 = load i32, ptr %12, align 4, !tbaa !11
  %178 = add nsw i32 %177, 2
  %179 = sext i32 %178 to i64
  %180 = load i64, ptr %9, align 8, !tbaa !26
  %181 = add nsw i64 %179, %180
  %182 = getelementptr inbounds i8, ptr %176, i64 %181
  %183 = load i8, ptr %182, align 1, !tbaa !36
  %184 = zext i8 %183 to i32
  %185 = sub nsw i32 %175, %184
  %186 = sub nsw i32 0, %185
  br label %187

187:                                              ; preds = %168, %150
  %188 = phi i32 [ %167, %150 ], [ %186, %168 ]
  %189 = add nsw i32 %131, %188
  %190 = load ptr, ptr %7, align 8, !tbaa !24
  %191 = load i32, ptr %12, align 4, !tbaa !11
  %192 = add nsw i32 %191, 3
  %193 = sext i32 %192 to i64
  %194 = getelementptr inbounds i8, ptr %190, i64 %193
  %195 = load i8, ptr %194, align 1, !tbaa !36
  %196 = zext i8 %195 to i32
  %197 = load ptr, ptr %7, align 8, !tbaa !24
  %198 = load i32, ptr %12, align 4, !tbaa !11
  %199 = add nsw i32 %198, 3
  %200 = sext i32 %199 to i64
  %201 = load i64, ptr %9, align 8, !tbaa !26
  %202 = add nsw i64 %200, %201
  %203 = getelementptr inbounds i8, ptr %197, i64 %202
  %204 = load i8, ptr %203, align 1, !tbaa !36
  %205 = zext i8 %204 to i32
  %206 = sub nsw i32 %196, %205
  %207 = icmp sge i32 %206, 0
  br i1 %207, label %208, label %226

208:                                              ; preds = %187
  %209 = load ptr, ptr %7, align 8, !tbaa !24
  %210 = load i32, ptr %12, align 4, !tbaa !11
  %211 = add nsw i32 %210, 3
  %212 = sext i32 %211 to i64
  %213 = getelementptr inbounds i8, ptr %209, i64 %212
  %214 = load i8, ptr %213, align 1, !tbaa !36
  %215 = zext i8 %214 to i32
  %216 = load ptr, ptr %7, align 8, !tbaa !24
  %217 = load i32, ptr %12, align 4, !tbaa !11
  %218 = add nsw i32 %217, 3
  %219 = sext i32 %218 to i64
  %220 = load i64, ptr %9, align 8, !tbaa !26
  %221 = add nsw i64 %219, %220
  %222 = getelementptr inbounds i8, ptr %216, i64 %221
  %223 = load i8, ptr %222, align 1, !tbaa !36
  %224 = zext i8 %223 to i32
  %225 = sub nsw i32 %215, %224
  br label %245

226:                                              ; preds = %187
  %227 = load ptr, ptr %7, align 8, !tbaa !24
  %228 = load i32, ptr %12, align 4, !tbaa !11
  %229 = add nsw i32 %228, 3
  %230 = sext i32 %229 to i64
  %231 = getelementptr inbounds i8, ptr %227, i64 %230
  %232 = load i8, ptr %231, align 1, !tbaa !36
  %233 = zext i8 %232 to i32
  %234 = load ptr, ptr %7, align 8, !tbaa !24
  %235 = load i32, ptr %12, align 4, !tbaa !11
  %236 = add nsw i32 %235, 3
  %237 = sext i32 %236 to i64
  %238 = load i64, ptr %9, align 8, !tbaa !26
  %239 = add nsw i64 %237, %238
  %240 = getelementptr inbounds i8, ptr %234, i64 %239
  %241 = load i8, ptr %240, align 1, !tbaa !36
  %242 = zext i8 %241 to i32
  %243 = sub nsw i32 %233, %242
  %244 = sub nsw i32 0, %243
  br label %245

245:                                              ; preds = %226, %208
  %246 = phi i32 [ %225, %208 ], [ %244, %226 ]
  %247 = add nsw i32 %189, %246
  %248 = load i32, ptr %11, align 4, !tbaa !11
  %249 = add nsw i32 %248, %247
  store i32 %249, ptr %11, align 4, !tbaa !11
  br label %250

250:                                              ; preds = %245
  %251 = load i32, ptr %12, align 4, !tbaa !11
  %252 = add nsw i32 %251, 4
  store i32 %252, ptr %12, align 4, !tbaa !11
  br label %19, !llvm.loop !109

253:                                              ; preds = %19
  %254 = load i64, ptr %9, align 8, !tbaa !26
  %255 = load ptr, ptr %7, align 8, !tbaa !24
  %256 = getelementptr inbounds i8, ptr %255, i64 %254
  store ptr %256, ptr %7, align 8, !tbaa !24
  br label %257

257:                                              ; preds = %253
  %258 = load i32, ptr %13, align 4, !tbaa !11
  %259 = add nsw i32 %258, 1
  store i32 %259, ptr %13, align 4, !tbaa !11
  br label %14, !llvm.loop !110

260:                                              ; preds = %14
  %261 = load i32, ptr %11, align 4, !tbaa !11
  call void @llvm.lifetime.end.p0(i64 4, ptr %13) #9
  call void @llvm.lifetime.end.p0(i64 4, ptr %12) #9
  call void @llvm.lifetime.end.p0(i64 4, ptr %11) #9
  ret i32 %261
}