; Function Attrs: nofree norecurse nosync nounwind memory(argmem: read) uwtable
define internal i32 @vsad_intra8_c(ptr readnone captures(none) %0, ptr noundef readonly captures(none) %1, ptr readnone captures(none) %2, i64 noundef %3, i32 noundef %4) #5 {
  %6 = icmp sgt i32 %4, 1
  br i1 %6, label %.preheader, label %._crit_edge

.preheader:                                       ; preds = %5, %48
  %.083 = phi i32 [ %49, %48 ], [ 1, %5 ]
  %.06982 = phi i32 [ %47, %48 ], [ 0, %5 ]
  %.07081 = phi ptr [ %7, %48 ], [ %1, %5 ]
  %7 = getelementptr i8, ptr %.07081, i64 %3
  br label %8

8:                                                ; preds = %.preheader, %8
  %9 = phi i1 [ true, %.preheader ], [ false, %8 ]
  %indvars.iv = phi i64 [ 0, %.preheader ], [ 4, %8 ]
  %.179 = phi i32 [ %.06982, %.preheader ], [ %47, %8 ]
  %10 = getelementptr inbounds nuw i8, ptr %.07081, i64 %indvars.iv
  %11 = load i8, ptr %10, align 1, !tbaa !20
  %12 = zext i8 %11 to i32
  %13 = getelementptr i8, ptr %7, i64 %indvars.iv
  %14 = load i8, ptr %13, align 1, !tbaa !20
  %15 = zext i8 %14 to i32
  %16 = sub nsw i32 %12, %15
  %17 = tail call i32 @llvm.abs.i32(i32 %16, i1 true)
  %18 = getelementptr inbounds nuw i8, ptr %10, i64 1
  %19 = load i8, ptr %18, align 1, !tbaa !20
  %20 = zext i8 %19 to i32
  %21 = getelementptr i8, ptr %13, i64 1
  %22 = load i8, ptr %21, align 1, !tbaa !20
  %23 = zext i8 %22 to i32
  %24 = sub nsw i32 %20, %23
  %25 = tail call i32 @llvm.abs.i32(i32 %24, i1 true)
  %26 = or disjoint i64 %indvars.iv, 2
  %27 = getelementptr inbounds nuw i8, ptr %.07081, i64 %26
  %28 = load i8, ptr %27, align 1, !tbaa !20
  %29 = zext i8 %28 to i32
  %30 = getelementptr i8, ptr %7, i64 %26
  %31 = load i8, ptr %30, align 1, !tbaa !20
  %32 = zext i8 %31 to i32
  %33 = sub nsw i32 %29, %32
  %34 = tail call i32 @llvm.abs.i32(i32 %33, i1 true)
  %35 = or disjoint i64 %indvars.iv, 3
  %36 = getelementptr inbounds nuw i8, ptr %.07081, i64 %35
  %37 = load i8, ptr %36, align 1, !tbaa !20
  %38 = zext i8 %37 to i32
  %39 = getelementptr i8, ptr %7, i64 %35
  %40 = load i8, ptr %39, align 1, !tbaa !20
  %41 = zext i8 %40 to i32
  %42 = sub nsw i32 %38, %41
  %43 = tail call i32 @llvm.abs.i32(i32 %42, i1 true)
  %44 = add i32 %17, %.179
  %45 = add i32 %44, %25
  %46 = add i32 %45, %34
  %47 = add i32 %46, %43
  br i1 %9, label %8, label %48, !llvm.loop !96

48:                                               ; preds = %8
  %49 = add nuw nsw i32 %.083, 1
  %exitcond.not = icmp eq i32 %49, %4
  br i1 %exitcond.not, label %._crit_edge, label %.preheader, !llvm.loop !97

._crit_edge:                                      ; preds = %48, %5
  %.069.lcssa = phi i32 [ 0, %5 ], [ %47, %48 ]
  ret i32 %.069.lcssa
}